target datalayout = "e-m:e-p270:32:32-p271:32:32-p272:64:64-i64:64-i128:128-f80:128-n8:16:32:64-S128"
target triple = "x86_64-pc-linux-gnu"

%"struct.ceres::Solver::Options" = type { i32, i32, i32, i32, i32, i8, i32, double, double, double, double, i32, i32, double, double, i32, i32, i8, i32, i32, double, i32, double, double, double, double, double, double, i32, double, double, double, i32, i32, i32, %"class.std::unordered_set", i32, i32, i32, %"class.std::shared_ptr", i8, i8, i8, i32, i32, i32, i32, i8, double, double, i8, i8, %"class.std::shared_ptr", double, i32, i8, %"class.std::vector", %"class.std::__cxx11::basic_string", i32, i8, double, double, i8, %"class.std::vector.9" }
%"class.std::unordered_set" = type { %"class.std::_Hashtable" }
%"class.std::_Hashtable" = type { ptr, i64, %"struct.std::__detail::_Hash_node_base", i64, %"struct.std::__detail::_Prime_rehash_policy", ptr }
%"struct.std::__detail::_Hash_node_base" = type { ptr }
%"struct.std::__detail::_Prime_rehash_policy" = type { float, i64 }
%"class.std::shared_ptr" = type { %"class.std::__shared_ptr" }
%"class.std::__shared_ptr" = type { ptr, %"class.std::__shared_count" }
%"class.std::__shared_count" = type { ptr }
%"class.std::vector" = type { %"struct.std::_Vector_base" }
%"struct.std::_Vector_base" = type { %"struct.std::_Vector_base<int, std::allocator<int>>::_Vector_impl" }
%"struct.std::_Vector_base<int, std::allocator<int>>::_Vector_impl" = type { %"struct.std::_Vector_base<int, std::allocator<int>>::_Vector_impl_data" }
%"struct.std::_Vector_base<int, std::allocator<int>>::_Vector_impl_data" = type { ptr, ptr, ptr }
%"class.std::__cxx11::basic_string" = type { %"struct.std::__cxx11::basic_string<char>::_Alloc_hider", i64, %union.anon }
%"struct.std::__cxx11::basic_string<char>::_Alloc_hider" = type { ptr }
%union.anon = type { i64, [8 x i8] }
%"class.std::vector.9" = type { %"struct.std::_Vector_base.10" }
%"struct.std::_Vector_base.10" = type { %"struct.std::_Vector_base<ceres::IterationCallback *, std::allocator<ceres::IterationCallback *>>::_Vector_impl" }
%"struct.std::_Vector_base<ceres::IterationCallback *, std::allocator<ceres::IterationCallback *>>::_Vector_impl" = type { %"struct.std::_Vector_base<ceres::IterationCallback *, std::allocator<ceres::IterationCallback *>>::_Vector_impl_data" }
%"struct.std::_Vector_base<ceres::IterationCallback *, std::allocator<ceres::IterationCallback *>>::_Vector_impl_data" = type { ptr, ptr, ptr }

; Function Attrs: mustprogress uwtable
define hidden noundef zeroext i1 @_ZNK5ceres21GradientProblemSolver7Options7IsValidEPNSt7__cxx1112basic_stringIcSt11char_traitsIcESaIcEEE(ptr noundef nonnull align 8 dereferenceable(152) %0, ptr noundef %1) #2 align 2 personality ptr @__gxx_personality_v0 {
  %3 = alloca ptr, align 8
  %4 = alloca ptr, align 8
  %5 = alloca %"struct.ceres::Solver::Options", align 8
  %6 = alloca ptr, align 8
  %7 = alloca i32, align 4
  store ptr %0, ptr %3, align 8
  store ptr %1, ptr %4, align 8
  %8 = load ptr, ptr %3, align 8
  call void @_ZN5ceres12_GLOBAL__N_143GradientProblemSolverOptionsToSolverOptionsERKNS_21GradientProblemSolver7OptionsE(ptr dead_on_unwind writable sret(%"struct.ceres::Solver::Options") align 8 %5, ptr noundef nonnull align 8 dereferenceable(152) %8)
  %9 = load ptr, ptr %4, align 8
  %10 = invoke noundef zeroext i1 @_ZNK5ceres6Solver7Options7IsValidEPNSt7__cxx1112basic_stringIcSt11char_traitsIcESaIcEEE(ptr noundef nonnull align 8 dereferenceable(504) %5, ptr noundef %9)
          to label %11 unwind label %12

11:                                               ; preds = %2
  call void @_ZN5ceres6Solver7OptionsD2Ev(ptr noundef nonnull align 8 dereferenceable(504) %5) #16
  ret i1 %10

12:                                               ; preds = %2
  %13 = landingpad { ptr, i32 }
          cleanup
  %14 = extractvalue { ptr, i32 } %13, 0
  store ptr %14, ptr %6, align 8
  %15 = extractvalue { ptr, i32 } %13, 1
  store i32 %15, ptr %7, align 4
  call void @_ZN5ceres6Solver7OptionsD2Ev(ptr noundef nonnull align 8 dereferenceable(504) %5) #16
  br label %16

16:                                               ; preds = %12
  %17 = load ptr, ptr %6, align 8
  %18 = load i32, ptr %7, align 4
  %19 = insertvalue { ptr, i32 } poison, ptr %17, 0
  %20 = insertvalue { ptr, i32 } %19, i32 %18, 1
  resume { ptr, i32 } %20
}