; Function Attrs: mustprogress uwtable
define hidden noundef zeroext i1 @_ZNK5ceres21GradientProblemSolver7Options7IsValidEPNSt7__cxx1112basic_stringIcSt11char_traitsIcESaIcEEE(ptr noundef nonnull align 8 dereferenceable(152) %0, ptr noundef %1) local_unnamed_addr #0 align 2 personality ptr @__gxx_personality_v0 {
  %3 = alloca %"struct.ceres::Solver::Options", align 8
  call fastcc void @_ZN5ceres12_GLOBAL__N_143GradientProblemSolverOptionsToSolverOptionsERKNS_21GradientProblemSolver7OptionsE(ptr dead_on_unwind noalias nonnull writable align 8 %3, ptr noundef nonnull align 8 dereferenceable(152) %0)
  %4 = invoke noundef zeroext i1 @_ZNK5ceres6Solver7Options7IsValidEPNSt7__cxx1112basic_stringIcSt11char_traitsIcESaIcEEE(ptr noundef nonnull align 8 dereferenceable(504) %3, ptr noundef %1)
          to label %5 unwind label %6

5:                                                ; preds = %2
  call void @_ZN5ceres6Solver7OptionsD2Ev(ptr noundef nonnull align 8 dereferenceable(504) %3) #21
  ret i1 %4

6:                                                ; preds = %2
  %7 = landingpad { ptr, i32 }
          cleanup
  call void @_ZN5ceres6Solver7OptionsD2Ev(ptr noundef nonnull align 8 dereferenceable(504) %3) #21
  resume { ptr, i32 } %7
}